target datalayout = "e-m:e-p270:32:32-p271:32:32-p272:64:64-i64:64-i128:128-f80:128-n8:16:32:64-S128"
target triple = "x86_64-pc-linux-gnu"

%struct.nghttp2_frame_hd = type { i64, i32, i8, i8, i8 }
%struct.nghttp2_headers = type { %struct.nghttp2_frame_hd, i64, %struct.nghttp2_priority_spec, ptr, i64, i32 }
%struct.nghttp2_priority_spec = type { i32, i32, i8 }

; Function Attrs: nounwind uwtable
define hidden void @nghttp2_frame_hd_init(ptr noundef %0, i64 noundef %1, i8 noundef zeroext %2, i8 noundef zeroext %3, i32 noundef %4) #0 {
  %6 = alloca ptr, align 8
  %7 = alloca i64, align 8
  %8 = alloca i8, align 1
  %9 = alloca i8, align 1
  %10 = alloca i32, align 4
  store ptr %0, ptr %6, align 8, !tbaa !8
  store i64 %1, ptr %7, align 8, !tbaa !18
  store i8 %2, ptr %8, align 1, !tbaa !14
  store i8 %3, ptr %9, align 1, !tbaa !14
  store i32 %4, ptr %10, align 4, !tbaa !19
  %11 = load i64, ptr %7, align 8, !tbaa !18
  %12 = load ptr, ptr %6, align 8, !tbaa !8
  %13 = getelementptr inbounds nuw %struct.nghttp2_frame_hd, ptr %12, i32 0, i32 0
  store i64 %11, ptr %13, align 8, !tbaa !9
  %14 = load i8, ptr %8, align 1, !tbaa !14
  %15 = load ptr, ptr %6, align 8, !tbaa !8
  %16 = getelementptr inbounds nuw %struct.nghttp2_frame_hd, ptr %15, i32 0, i32 2
  store i8 %14, ptr %16, align 4, !tbaa !13
  %17 = load i8, ptr %9, align 1, !tbaa !14
  %18 = load ptr, ptr %6, align 8, !tbaa !8
  %19 = getelementptr inbounds nuw %struct.nghttp2_frame_hd, ptr %18, i32 0, i32 3
  store i8 %17, ptr %19, align 1, !tbaa !15
  %20 = load i32, ptr %10, align 4, !tbaa !19
  %21 = load ptr, ptr %6, align 8, !tbaa !8
  %22 = getelementptr inbounds nuw %struct.nghttp2_frame_hd, ptr %21, i32 0, i32 1
  store i32 %20, ptr %22, align 8, !tbaa !16
  %23 = load ptr, ptr %6, align 8, !tbaa !8
  %24 = getelementptr inbounds nuw %struct.nghttp2_frame_hd, ptr %23, i32 0, i32 4
  store i8 0, ptr %24, align 2, !tbaa !17
  ret void
}

; Function Attrs: nounwind uwtable
define hidden void @nghttp2_frame_headers_init(ptr noundef %0, i8 noundef zeroext %1, i32 noundef %2, i32 noundef %3, ptr noundef %4, ptr noundef %5, i64 noundef %6) #0 {
  %8 = alloca ptr, align 8
  %9 = alloca i8, align 1
  %10 = alloca i32, align 4
  %11 = alloca i32, align 4
  %12 = alloca ptr, align 8
  %13 = alloca ptr, align 8
  %14 = alloca i64, align 8
  store ptr %0, ptr %8, align 8, !tbaa !8
  store i8 %1, ptr %9, align 1, !tbaa !14
  store i32 %2, ptr %10, align 4, !tbaa !19
  store i32 %3, ptr %11, align 4, !tbaa !19
  store ptr %4, ptr %12, align 8, !tbaa !8
  store ptr %5, ptr %13, align 8, !tbaa !8
  store i64 %6, ptr %14, align 8, !tbaa !18
  %15 = load ptr, ptr %8, align 8, !tbaa !8
  %16 = getelementptr inbounds nuw %struct.nghttp2_headers, ptr %15, i32 0, i32 0
  %17 = load i8, ptr %9, align 1, !tbaa !14
  %18 = load i32, ptr %10, align 4, !tbaa !19
  call void @nghttp2_frame_hd_init(ptr noundef %16, i64 noundef 0, i8 noundef zeroext 1, i8 noundef zeroext %17, i32 noundef %18)
  %19 = load ptr, ptr %8, align 8, !tbaa !8
  %20 = getelementptr inbounds nuw %struct.nghttp2_headers, ptr %19, i32 0, i32 1
  store i64 0, ptr %20, align 8, !tbaa !20
  %21 = load ptr, ptr %13, align 8, !tbaa !8
  %22 = load ptr, ptr %8, align 8, !tbaa !8
  %23 = getelementptr inbounds nuw %struct.nghttp2_headers, ptr %22, i32 0, i32 3
  store ptr %21, ptr %23, align 8, !tbaa !23
  %24 = load i64, ptr %14, align 8, !tbaa !18
  %25 = load ptr, ptr %8, align 8, !tbaa !8
  %26 = getelementptr inbounds nuw %struct.nghttp2_headers, ptr %25, i32 0, i32 4
  store i64 %24, ptr %26, align 8, !tbaa !24
  %27 = load i32, ptr %11, align 4, !tbaa !19
  %28 = load ptr, ptr %8, align 8, !tbaa !8
  %29 = getelementptr inbounds nuw %struct.nghttp2_headers, ptr %28, i32 0, i32 5
  store i32 %27, ptr %29, align 8, !tbaa !25
  %30 = load ptr, ptr %12, align 8, !tbaa !8
  %31 = icmp ne ptr %30, null
  br i1 %31, label %32, label %36

32:                                               ; preds = %7
  %33 = load ptr, ptr %8, align 8, !tbaa !8
  %34 = getelementptr inbounds nuw %struct.nghttp2_headers, ptr %33, i32 0, i32 2
  %35 = load ptr, ptr %12, align 8, !tbaa !8
  call void @llvm.memcpy.p0.p0.i64(ptr align 8 %34, ptr align 4 %35, i64 12, i1 false), !tbaa.struct !26
  br label %39

36:                                               ; preds = %7
  %37 = load ptr, ptr %8, align 8, !tbaa !8
  %38 = getelementptr inbounds nuw %struct.nghttp2_headers, ptr %37, i32 0, i32 2
  call void @nghttp2_priority_spec_default_init(ptr noundef %38)
  br label %39

39:                                               ; preds = %36, %32
  ret void
}