; Function Attrs: nounwind uwtable
define hidden void @nghttp2_frame_headers_init(ptr noundef initializes((0, 15), (16, 24), (40, 60)) %0, i8 noundef zeroext %1, i32 noundef %2, i32 noundef %3, ptr noundef readonly %4, ptr noundef %5, i64 noundef %6) local_unnamed_addr #0 {
  store i64 0, ptr %0, align 8, !tbaa !3
  %8 = getelementptr inbounds nuw i8, ptr %0, i64 12
  store i8 1, ptr %8, align 4, !tbaa !9
  %9 = getelementptr inbounds nuw i8, ptr %0, i64 13
  store i8 %1, ptr %9, align 1, !tbaa !11
  %10 = getelementptr inbounds nuw i8, ptr %0, i64 8
  store i32 %2, ptr %10, align 8, !tbaa !12
  %11 = getelementptr inbounds nuw i8, ptr %0, i64 14
  store i8 0, ptr %11, align 2, !tbaa !13
  %12 = getelementptr inbounds nuw i8, ptr %0, i64 16
  store i64 0, ptr %12, align 8, !tbaa !14
  %13 = getelementptr inbounds nuw i8, ptr %0, i64 40
  store ptr %5, ptr %13, align 8, !tbaa !18
  %14 = getelementptr inbounds nuw i8, ptr %0, i64 48
  store i64 %6, ptr %14, align 8, !tbaa !19
  %15 = getelementptr inbounds nuw i8, ptr %0, i64 56
  store i32 %3, ptr %15, align 8, !tbaa !20
  %.not = icmp eq ptr %4, null
  %16 = getelementptr inbounds nuw i8, ptr %0, i64 24
  br i1 %.not, label %18, label %17

17:                                               ; preds = %7
  tail call void @llvm.memcpy.p0.p0.i64(ptr noundef nonnull align 8 dereferenceable(12) %16, ptr noundef nonnull align 4 dereferenceable(12) %4, i64 12, i1 false), !tbaa.struct !21
  br label %19

18:                                               ; preds = %7
  tail call void @nghttp2_priority_spec_default_init(ptr noundef nonnull %16) #18
  br label %19

19:                                               ; preds = %18, %17
  ret void
}